target datalayout = "e-m:e-p270:32:32-p271:32:32-p272:64:64-i64:64-i128:128-f80:128-n8:16:32:64-S128"
target triple = "x86_64-pc-linux-gnu"

%struct.AVFilterLink = type { ptr, ptr, ptr, ptr, i32, i32, i32, i32, %struct.AVRational, i32, i32, i32, %struct.AVChannelLayout, %struct.AVRational, ptr, i32, %struct.AVFilterFormatsConfig, %struct.AVFilterFormatsConfig }
%struct.AVChannelLayout = type { i32, i32, %union.anon.1, ptr }
%union.anon.1 = type { i64 }
%struct.AVRational = type { i32, i32 }
%struct.AVFilterFormatsConfig = type { ptr, ptr, ptr, ptr, ptr }
%struct.AVFilterContext = type { ptr, ptr, ptr, ptr, ptr, i32, ptr, ptr, i32, ptr, ptr, i32, i32, ptr, ptr, ptr, ptr, i32, ptr, i32, i32 }
%struct.PixelizeContext = type { ptr, [4 x i32], [4 x i32], i32, i32, i32, i32, [4 x i32], [4 x i32], [4 x i32], i32, i32, [3 x ptr] }
%struct.AVPixFmtDescriptor = type { ptr, i8, i8, i8, i64, [4 x %struct.AVComponentDescriptor], ptr }
%struct.AVComponentDescriptor = type { i32, i32, i32, i32, i32 }

; Function Attrs: nounwind uwtable
define internal i32 @config_output(ptr noundef %0) #1 {
  %2 = alloca i32, align 4
  %3 = alloca ptr, align 8
  %4 = alloca ptr, align 8
  %5 = alloca ptr, align 8
  %6 = alloca ptr, align 8
  %7 = alloca ptr, align 8
  %8 = alloca i32, align 4
  %9 = alloca i32, align 4
  store ptr %0, ptr %3, align 8, !tbaa !4
  call void @llvm.lifetime.start.p0(i64 8, ptr %4) #5
  %10 = load ptr, ptr %3, align 8, !tbaa !4
  %11 = getelementptr inbounds nuw %struct.AVFilterLink, ptr %10, i32 0, i32 0
  %12 = load ptr, ptr %11, align 8, !tbaa !60
  store ptr %12, ptr %4, align 8, !tbaa !23
  call void @llvm.lifetime.start.p0(i64 8, ptr %5) #5
  %13 = load ptr, ptr %4, align 8, !tbaa !23
  %14 = getelementptr inbounds nuw %struct.AVFilterContext, ptr %13, i32 0, i32 9
  %15 = load ptr, ptr %14, align 8, !tbaa !34
  store ptr %15, ptr %5, align 8, !tbaa !35
  call void @llvm.lifetime.start.p0(i64 8, ptr %6) #5
  %16 = load ptr, ptr %4, align 8, !tbaa !23
  %17 = getelementptr inbounds nuw %struct.AVFilterContext, ptr %16, i32 0, i32 4
  %18 = load ptr, ptr %17, align 8, !tbaa !61
  %19 = getelementptr inbounds ptr, ptr %18, i64 0
  %20 = load ptr, ptr %19, align 8, !tbaa !4
  store ptr %20, ptr %6, align 8, !tbaa !4
  call void @llvm.lifetime.start.p0(i64 8, ptr %7) #5
  call void @llvm.lifetime.start.p0(i64 4, ptr %8) #5
  %21 = load ptr, ptr %3, align 8, !tbaa !4
  %22 = getelementptr inbounds nuw %struct.AVFilterLink, ptr %21, i32 0, i32 5
  %23 = load i32, ptr %22, align 4, !tbaa !62
  %24 = call ptr @av_pix_fmt_desc_get(i32 noundef %23)
  store ptr %24, ptr %7, align 8, !tbaa !63
  %25 = load ptr, ptr %7, align 8, !tbaa !63
  %26 = icmp ne ptr %25, null
  br i1 %26, label %28, label %27

27:                                               ; preds = %1
  store i32 -558323010, ptr %2, align 4
  store i32 1, ptr %9, align 4
  br label %188

28:                                               ; preds = %1
  %29 = load ptr, ptr %3, align 8, !tbaa !4
  %30 = getelementptr inbounds nuw %struct.AVFilterLink, ptr %29, i32 0, i32 5
  %31 = load i32, ptr %30, align 4, !tbaa !62
  %32 = call i32 @av_pix_fmt_count_planes(i32 noundef %31)
  %33 = load ptr, ptr %5, align 8, !tbaa !35
  %34 = getelementptr inbounds nuw %struct.PixelizeContext, ptr %33, i32 0, i32 6
  store i32 %32, ptr %34, align 4, !tbaa !50
  %35 = load ptr, ptr %7, align 8, !tbaa !63
  %36 = getelementptr inbounds nuw %struct.AVPixFmtDescriptor, ptr %35, i32 0, i32 5
  %37 = getelementptr inbounds [4 x %struct.AVComponentDescriptor], ptr %36, i64 0, i64 0
  %38 = getelementptr inbounds nuw %struct.AVComponentDescriptor, ptr %37, i32 0, i32 4
  %39 = load i32, ptr %38, align 8, !tbaa !65
  %40 = load ptr, ptr %5, align 8, !tbaa !35
  %41 = getelementptr inbounds nuw %struct.PixelizeContext, ptr %40, i32 0, i32 4
  store i32 %39, ptr %41, align 4, !tbaa !55
  %42 = load ptr, ptr %5, align 8, !tbaa !35
  %43 = getelementptr inbounds nuw %struct.PixelizeContext, ptr %42, i32 0, i32 7
  %44 = getelementptr inbounds [4 x i32], ptr %43, i64 0, i64 0
  %45 = load ptr, ptr %6, align 8, !tbaa !4
  %46 = getelementptr inbounds nuw %struct.AVFilterLink, ptr %45, i32 0, i32 5
  %47 = load i32, ptr %46, align 4, !tbaa !62
  %48 = load ptr, ptr %6, align 8, !tbaa !4
  %49 = getelementptr inbounds nuw %struct.AVFilterLink, ptr %48, i32 0, i32 6
  %50 = load i32, ptr %49, align 8, !tbaa !41
  %51 = call i32 @av_image_fill_linesizes(ptr noundef %44, i32 noundef %47, i32 noundef %50)
  store i32 %51, ptr %8, align 4, !tbaa !37
  %52 = icmp slt i32 %51, 0
  br i1 %52, label %53, label %55

53:                                               ; preds = %28
  %54 = load i32, ptr %8, align 4, !tbaa !37
  store i32 %54, ptr %2, align 4
  store i32 1, ptr %9, align 4
  br label %188

55:                                               ; preds = %28
  %56 = load ptr, ptr %7, align 8, !tbaa !63
  %57 = getelementptr inbounds nuw %struct.AVPixFmtDescriptor, ptr %56, i32 0, i32 2
  %58 = load i8, ptr %57, align 1, !tbaa !67
  %59 = call i1 @llvm.is.constant.i8(i8 %58)
  br i1 %59, label %71, label %60

60:                                               ; preds = %55
  %61 = load ptr, ptr %6, align 8, !tbaa !4
  %62 = getelementptr inbounds nuw %struct.AVFilterLink, ptr %61, i32 0, i32 6
  %63 = load i32, ptr %62, align 8, !tbaa !41
  %64 = sub nsw i32 0, %63
  %65 = load ptr, ptr %7, align 8, !tbaa !63
  %66 = getelementptr inbounds nuw %struct.AVPixFmtDescriptor, ptr %65, i32 0, i32 2
  %67 = load i8, ptr %66, align 1, !tbaa !67
  %68 = zext i8 %67 to i32
  %69 = ashr i32 %64, %68
  %70 = sub nsw i32 0, %69
  br label %87

71:                                               ; preds = %55
  %72 = load ptr, ptr %6, align 8, !tbaa !4
  %73 = getelementptr inbounds nuw %struct.AVFilterLink, ptr %72, i32 0, i32 6
  %74 = load i32, ptr %73, align 8, !tbaa !41
  %75 = load ptr, ptr %7, align 8, !tbaa !63
  %76 = getelementptr inbounds nuw %struct.AVPixFmtDescriptor, ptr %75, i32 0, i32 2
  %77 = load i8, ptr %76, align 1, !tbaa !67
  %78 = zext i8 %77 to i32
  %79 = shl i32 1, %78
  %80 = add nsw i32 %74, %79
  %81 = sub nsw i32 %80, 1
  %82 = load ptr, ptr %7, align 8, !tbaa !63
  %83 = getelementptr inbounds nuw %struct.AVPixFmtDescriptor, ptr %82, i32 0, i32 2
  %84 = load i8, ptr %83, align 1, !tbaa !67
  %85 = zext i8 %84 to i32
  %86 = ashr i32 %81, %85
  br label %87

87:                                               ; preds = %71, %60
  %88 = phi i32 [ %70, %60 ], [ %86, %71 ]
  %89 = load ptr, ptr %5, align 8, !tbaa !35
  %90 = getelementptr inbounds nuw %struct.PixelizeContext, ptr %89, i32 0, i32 8
  %91 = getelementptr inbounds [4 x i32], ptr %90, i64 0, i64 2
  store i32 %88, ptr %91, align 8, !tbaa !37
  %92 = load ptr, ptr %5, align 8, !tbaa !35
  %93 = getelementptr inbounds nuw %struct.PixelizeContext, ptr %92, i32 0, i32 8
  %94 = getelementptr inbounds [4 x i32], ptr %93, i64 0, i64 1
  store i32 %88, ptr %94, align 4, !tbaa !37
  %95 = load ptr, ptr %6, align 8, !tbaa !4
  %96 = getelementptr inbounds nuw %struct.AVFilterLink, ptr %95, i32 0, i32 6
  %97 = load i32, ptr %96, align 8, !tbaa !41
  %98 = load ptr, ptr %5, align 8, !tbaa !35
  %99 = getelementptr inbounds nuw %struct.PixelizeContext, ptr %98, i32 0, i32 8
  %100 = getelementptr inbounds [4 x i32], ptr %99, i64 0, i64 3
  store i32 %97, ptr %100, align 4, !tbaa !37
  %101 = load ptr, ptr %5, align 8, !tbaa !35
  %102 = getelementptr inbounds nuw %struct.PixelizeContext, ptr %101, i32 0, i32 8
  %103 = getelementptr inbounds [4 x i32], ptr %102, i64 0, i64 0
  store i32 %97, ptr %103, align 8, !tbaa !37
  %104 = load ptr, ptr %7, align 8, !tbaa !63
  %105 = getelementptr inbounds nuw %struct.AVPixFmtDescriptor, ptr %104, i32 0, i32 3
  %106 = load i8, ptr %105, align 2, !tbaa !69
  %107 = call i1 @llvm.is.constant.i8(i8 %106)
  br i1 %107, label %119, label %108

108:                                              ; preds = %87
  %109 = load ptr, ptr %6, align 8, !tbaa !4
  %110 = getelementptr inbounds nuw %struct.AVFilterLink, ptr %109, i32 0, i32 7
  %111 = load i32, ptr %110, align 4, !tbaa !42
  %112 = sub nsw i32 0, %111
  %113 = load ptr, ptr %7, align 8, !tbaa !63
  %114 = getelementptr inbounds nuw %struct.AVPixFmtDescriptor, ptr %113, i32 0, i32 3
  %115 = load i8, ptr %114, align 2, !tbaa !69
  %116 = zext i8 %115 to i32
  %117 = ashr i32 %112, %116
  %118 = sub nsw i32 0, %117
  br label %135

119:                                              ; preds = %87
  %120 = load ptr, ptr %6, align 8, !tbaa !4
  %121 = getelementptr inbounds nuw %struct.AVFilterLink, ptr %120, i32 0, i32 7
  %122 = load i32, ptr %121, align 4, !tbaa !42
  %123 = load ptr, ptr %7, align 8, !tbaa !63
  %124 = getelementptr inbounds nuw %struct.AVPixFmtDescriptor, ptr %123, i32 0, i32 3
  %125 = load i8, ptr %124, align 2, !tbaa !69
  %126 = zext i8 %125 to i32
  %127 = shl i32 1, %126
  %128 = add nsw i32 %122, %127
  %129 = sub nsw i32 %128, 1
  %130 = load ptr, ptr %7, align 8, !tbaa !63
  %131 = getelementptr inbounds nuw %struct.AVPixFmtDescriptor, ptr %130, i32 0, i32 3
  %132 = load i8, ptr %131, align 2, !tbaa !69
  %133 = zext i8 %132 to i32
  %134 = ashr i32 %129, %133
  br label %135

135:                                              ; preds = %119, %108
  %136 = phi i32 [ %118, %108 ], [ %134, %119 ]
  %137 = load ptr, ptr %5, align 8, !tbaa !35
  %138 = getelementptr inbounds nuw %struct.PixelizeContext, ptr %137, i32 0, i32 9
  %139 = getelementptr inbounds [4 x i32], ptr %138, i64 0, i64 2
  store i32 %136, ptr %139, align 8, !tbaa !37
  %140 = load ptr, ptr %5, align 8, !tbaa !35
  %141 = getelementptr inbounds nuw %struct.PixelizeContext, ptr %140, i32 0, i32 9
  %142 = getelementptr inbounds [4 x i32], ptr %141, i64 0, i64 1
  store i32 %136, ptr %142, align 4, !tbaa !37
  %143 = load ptr, ptr %6, align 8, !tbaa !4
  %144 = getelementptr inbounds nuw %struct.AVFilterLink, ptr %143, i32 0, i32 7
  %145 = load i32, ptr %144, align 4, !tbaa !42
  %146 = load ptr, ptr %5, align 8, !tbaa !35
  %147 = getelementptr inbounds nuw %struct.PixelizeContext, ptr %146, i32 0, i32 9
  %148 = getelementptr inbounds [4 x i32], ptr %147, i64 0, i64 3
  store i32 %145, ptr %148, align 4, !tbaa !37
  %149 = load ptr, ptr %5, align 8, !tbaa !35
  %150 = getelementptr inbounds nuw %struct.PixelizeContext, ptr %149, i32 0, i32 9
  %151 = getelementptr inbounds [4 x i32], ptr %150, i64 0, i64 0
  store i32 %145, ptr %151, align 8, !tbaa !37
  %152 = load ptr, ptr %7, align 8, !tbaa !63
  %153 = getelementptr inbounds nuw %struct.AVPixFmtDescriptor, ptr %152, i32 0, i32 2
  %154 = load i8, ptr %153, align 1, !tbaa !67
  %155 = zext i8 %154 to i32
  %156 = load ptr, ptr %5, align 8, !tbaa !35
  %157 = getelementptr inbounds nuw %struct.PixelizeContext, ptr %156, i32 0, i32 10
  store i32 %155, ptr %157, align 8, !tbaa !38
  %158 = load ptr, ptr %7, align 8, !tbaa !63
  %159 = getelementptr inbounds nuw %struct.AVPixFmtDescriptor, ptr %158, i32 0, i32 3
  %160 = load i8, ptr %159, align 2, !tbaa !69
  %161 = zext i8 %160 to i32
  %162 = load ptr, ptr %5, align 8, !tbaa !35
  %163 = getelementptr inbounds nuw %struct.PixelizeContext, ptr %162, i32 0, i32 11
  store i32 %161, ptr %163, align 4, !tbaa !40
  %164 = load ptr, ptr %5, align 8, !tbaa !35
  %165 = getelementptr inbounds nuw %struct.PixelizeContext, ptr %164, i32 0, i32 4
  %166 = load i32, ptr %165, align 4, !tbaa !55
  %167 = icmp sle i32 %166, 8
  %168 = select i1 %167, ptr @pixelize_avg8, ptr @pixelize_avg16
  %169 = load ptr, ptr %5, align 8, !tbaa !35
  %170 = getelementptr inbounds nuw %struct.PixelizeContext, ptr %169, i32 0, i32 12
  %171 = getelementptr inbounds [3 x ptr], ptr %170, i64 0, i64 0
  store ptr %168, ptr %171, align 8, !tbaa !46
  %172 = load ptr, ptr %5, align 8, !tbaa !35
  %173 = getelementptr inbounds nuw %struct.PixelizeContext, ptr %172, i32 0, i32 4
  %174 = load i32, ptr %173, align 4, !tbaa !55
  %175 = icmp sle i32 %174, 8
  %176 = select i1 %175, ptr @pixelize_min8, ptr @pixelize_min16
  %177 = load ptr, ptr %5, align 8, !tbaa !35
  %178 = getelementptr inbounds nuw %struct.PixelizeContext, ptr %177, i32 0, i32 12
  %179 = getelementptr inbounds [3 x ptr], ptr %178, i64 0, i64 1
  store ptr %176, ptr %179, align 8, !tbaa !46
  %180 = load ptr, ptr %5, align 8, !tbaa !35
  %181 = getelementptr inbounds nuw %struct.PixelizeContext, ptr %180, i32 0, i32 4
  %182 = load i32, ptr %181, align 4, !tbaa !55
  %183 = icmp sle i32 %182, 8
  %184 = select i1 %183, ptr @pixelize_max8, ptr @pixelize_max16
  %185 = load ptr, ptr %5, align 8, !tbaa !35
  %186 = getelementptr inbounds nuw %struct.PixelizeContext, ptr %185, i32 0, i32 12
  %187 = getelementptr inbounds [3 x ptr], ptr %186, i64 0, i64 2
  store ptr %184, ptr %187, align 8, !tbaa !46
  store i32 0, ptr %2, align 4
  store i32 1, ptr %9, align 4
  br label %188

188:                                              ; preds = %135, %53, %27
  call void @llvm.lifetime.end.p0(i64 4, ptr %8) #5
  call void @llvm.lifetime.end.p0(i64 8, ptr %7) #5
  call void @llvm.lifetime.end.p0(i64 8, ptr %6) #5
  call void @llvm.lifetime.end.p0(i64 8, ptr %5) #5
  call void @llvm.lifetime.end.p0(i64 8, ptr %4) #5
  %189 = load i32, ptr %2, align 4
  ret i32 %189
}