; Function Attrs: nounwind uwtable
define internal range(i32 -2147483648, 1) i32 @config_output(ptr noundef readonly captures(none) %0) #1 {
  %2 = load ptr, ptr %0, align 8, !tbaa !53
  %3 = getelementptr inbounds nuw i8, ptr %2, i64 72
  %4 = load ptr, ptr %3, align 8, !tbaa !33
  %5 = getelementptr inbounds nuw i8, ptr %2, i64 32
  %6 = load ptr, ptr %5, align 8, !tbaa !54
  %7 = load ptr, ptr %6, align 8, !tbaa !31
  %8 = getelementptr inbounds nuw i8, ptr %0, i64 36
  %9 = load i32, ptr %8, align 4, !tbaa !55
  %10 = tail call ptr @av_pix_fmt_desc_get(i32 noundef %9) #7
  %.not = icmp eq ptr %10, null
  br i1 %.not, label %63, label %11

11:                                               ; preds = %1
  %12 = load i32, ptr %8, align 4, !tbaa !55
  %13 = tail call i32 @av_pix_fmt_count_planes(i32 noundef %12) #7
  %14 = getelementptr inbounds nuw i8, ptr %4, i64 52
  store i32 %13, ptr %14, align 4, !tbaa !43
  %15 = getelementptr inbounds nuw i8, ptr %10, i64 40
  %16 = load i32, ptr %15, align 8, !tbaa !56
  %17 = getelementptr inbounds nuw i8, ptr %4, i64 44
  store i32 %16, ptr %17, align 4, !tbaa !48
  %18 = getelementptr inbounds nuw i8, ptr %4, i64 56
  %19 = getelementptr inbounds nuw i8, ptr %7, i64 36
  %20 = load i32, ptr %19, align 4, !tbaa !55
  %21 = getelementptr inbounds nuw i8, ptr %7, i64 40
  %22 = load i32, ptr %21, align 8, !tbaa !38
  %23 = tail call i32 @av_image_fill_linesizes(ptr noundef nonnull %18, i32 noundef %20, i32 noundef %22) #7
  %24 = icmp slt i32 %23, 0
  br i1 %24, label %63, label %25

25:                                               ; preds = %11
  %26 = getelementptr inbounds nuw i8, ptr %10, i64 9
  %27 = load i8, ptr %26, align 1, !tbaa !58
  %28 = load i32, ptr %21, align 8, !tbaa !38
  %29 = sub nsw i32 0, %28
  %30 = zext nneg i8 %27 to i32
  %31 = ashr i32 %29, %30
  %32 = sub nsw i32 0, %31
  %33 = getelementptr inbounds nuw i8, ptr %4, i64 72
  %34 = getelementptr inbounds nuw i8, ptr %4, i64 80
  store i32 %32, ptr %34, align 8, !tbaa !34
  %35 = getelementptr inbounds nuw i8, ptr %4, i64 76
  store i32 %32, ptr %35, align 4, !tbaa !34
  %36 = load i32, ptr %21, align 8, !tbaa !38
  %37 = getelementptr inbounds nuw i8, ptr %4, i64 84
  store i32 %36, ptr %37, align 4, !tbaa !34
  store i32 %36, ptr %33, align 8, !tbaa !34
  %38 = getelementptr inbounds nuw i8, ptr %7, i64 44
  %39 = load i32, ptr %38, align 4, !tbaa !39
  %40 = sub nsw i32 0, %39
  %41 = getelementptr inbounds nuw i8, ptr %10, i64 10
  %42 = load i8, ptr %41, align 2, !tbaa !61
  %43 = zext i8 %42 to i32
  %44 = ashr i32 %40, %43
  %45 = sub nsw i32 0, %44
  %46 = getelementptr inbounds nuw i8, ptr %4, i64 88
  %47 = getelementptr inbounds nuw i8, ptr %4, i64 96
  store i32 %45, ptr %47, align 8, !tbaa !34
  %48 = getelementptr inbounds nuw i8, ptr %4, i64 92
  store i32 %45, ptr %48, align 4, !tbaa !34
  %49 = getelementptr inbounds nuw i8, ptr %7, i64 44
  %50 = load i32, ptr %49, align 4, !tbaa !39
  %51 = getelementptr inbounds nuw i8, ptr %4, i64 100
  store i32 %50, ptr %51, align 4, !tbaa !34
  store i32 %50, ptr %46, align 8, !tbaa !34
  %52 = zext i8 %27 to i32
  %53 = getelementptr inbounds nuw i8, ptr %4, i64 104
  store i32 %52, ptr %53, align 8, !tbaa !35
  %54 = getelementptr inbounds nuw i8, ptr %4, i64 108
  store i32 %43, ptr %54, align 4, !tbaa !37
  %55 = load i32, ptr %17, align 4, !tbaa !48
  %56 = icmp slt i32 %55, 9
  %57 = select i1 %56, ptr @pixelize_avg8, ptr @pixelize_avg16
  %58 = getelementptr inbounds nuw i8, ptr %4, i64 112
  store ptr %57, ptr %58, align 8, !tbaa !47
  %59 = select i1 %56, ptr @pixelize_min8, ptr @pixelize_min16
  %60 = getelementptr inbounds nuw i8, ptr %4, i64 120
  store ptr %59, ptr %60, align 8, !tbaa !47
  %61 = select i1 %56, ptr @pixelize_max8, ptr @pixelize_max16
  %62 = getelementptr inbounds nuw i8, ptr %4, i64 128
  store ptr %61, ptr %62, align 8, !tbaa !47
  br label %63

63:                                               ; preds = %11, %1, %25
  %.0 = phi i32 [ 0, %25 ], [ -558323010, %1 ], [ %23, %11 ]
  ret i32 %.0
}